; Function Attrs: mustprogress uwtable
define hidden void @_ZN3smt16fresh_value_proc16get_dependenciesER6bufferINS_22model_value_dependencyELb1ELj16EE(ptr nocapture noundef nonnull readonly align 8 dereferenceable(16) %this, ptr noundef nonnull align 8 dereferenceable(272) %result) unnamed_addr #3 align 2 {
entry:
  %m_value = getelementptr inbounds i8, ptr %this, i64 8
  %0 = load ptr, ptr %m_value, align 8
  %m_pos.i = getelementptr inbounds i8, ptr %result, i64 8
  %1 = load i32, ptr %m_pos.i, align 8
  %m_capacity.i = getelementptr inbounds i8, ptr %result, i64 12
  %2 = load i32, ptr %m_capacity.i, align 4
  %cmp.not.i = icmp ult i32 %1, %2
  br i1 %cmp.not.i, label %entry.if.end_crit_edge.i, label %if.then.i

entry.if.end_crit_edge.i:                         ; preds = %entry
  %.pre.i = load ptr, ptr %result, align 8
  br label %_ZN6bufferIN3smt22model_value_dependencyELb1ELj16EE9push_backEOS1_.exit

if.then.i:                                        ; preds = %entry
  %shl.i.i = shl i32 %2, 1
  %conv.i.i = zext i32 %shl.i.i to i64
  %mul.i.i = shl nuw nsw i64 %conv.i.i, 4
  %call.i.i = tail call noalias noundef ptr @_ZN6memory8allocateEm(i64 noundef %mul.i.i)
  %3 = load i32, ptr %m_pos.i, align 8
  %cmp6.not.i.i = icmp eq i32 %3, 0
  %.pre.i.i = load ptr, ptr %result, align 8
  br i1 %cmp6.not.i.i, label %for.end.i.i, label %for.body.lr.ph.i.i

for.body.lr.ph.i.i:                               ; preds = %if.then.i
  %wide.trip.count.i.i = zext i32 %3 to i64
  br label %for.body.i.i

for.body.i.i:                                     ; preds = %for.body.i.i, %for.body.lr.ph.i.i
  %indvars.iv.i.i = phi i64 [ 0, %for.body.lr.ph.i.i ], [ %indvars.iv.next.i.i, %for.body.i.i ]
  %arrayidx.i.i = getelementptr inbounds %"class.smt::model_value_dependency", ptr %call.i.i, i64 %indvars.iv.i.i
  %arrayidx3.i.i = getelementptr inbounds %"class.smt::model_value_dependency", ptr %.pre.i.i, i64 %indvars.iv.i.i
  tail call void @llvm.memcpy.p0.p0.i64(ptr noundef nonnull align 8 dereferenceable(16) %arrayidx.i.i, ptr noundef nonnull align 8 dereferenceable(16) %arrayidx3.i.i, i64 16, i1 false)
  %indvars.iv.next.i.i = add nuw nsw i64 %indvars.iv.i.i, 1
  %exitcond.not.i.i = icmp eq i64 %indvars.iv.next.i.i, %wide.trip.count.i.i
  br i1 %exitcond.not.i.i, label %for.end.i.i, label %for.body.i.i, !llvm.loop !4

for.end.i.i:                                      ; preds = %for.body.i.i, %if.then.i
  %m_initial_buffer.i.i.i = getelementptr inbounds i8, ptr %result, i64 16
  %cmp.not.i.i.i = icmp eq ptr %.pre.i.i, %m_initial_buffer.i.i.i
  %cmp.i.i.i.i = icmp eq ptr %.pre.i.i, null
  %or.cond.i.i.i = or i1 %cmp.not.i.i.i, %cmp.i.i.i.i
  br i1 %or.cond.i.i.i, label %_ZN6bufferIN3smt22model_value_dependencyELb1ELj16EE6expandEv.exit.i, label %if.end.i.i.i.i

if.end.i.i.i.i:                                   ; preds = %for.end.i.i
  tail call void @_ZN6memory10deallocateEPv(ptr noundef nonnull %.pre.i.i)
  %.pre1.pre.i = load i32, ptr %m_pos.i, align 8
  br label %_ZN6bufferIN3smt22model_value_dependencyELb1ELj16EE6expandEv.exit.i

_ZN6bufferIN3smt22model_value_dependencyELb1ELj16EE6expandEv.exit.i: ; preds = %if.end.i.i.i.i, %for.end.i.i
  %.pre1.i = phi i32 [ %3, %for.end.i.i ], [ %.pre1.pre.i, %if.end.i.i.i.i ]
  store ptr %call.i.i, ptr %result, align 8
  store i32 %shl.i.i, ptr %m_capacity.i, align 4
  br label %_ZN6bufferIN3smt22model_value_dependencyELb1ELj16EE9push_backEOS1_.exit

_ZN6bufferIN3smt22model_value_dependencyELb1ELj16EE9push_backEOS1_.exit: ; preds = %entry.if.end_crit_edge.i, %_ZN6bufferIN3smt22model_value_dependencyELb1ELj16EE6expandEv.exit.i
  %4 = phi i32 [ %1, %entry.if.end_crit_edge.i ], [ %.pre1.i, %_ZN6bufferIN3smt22model_value_dependencyELb1ELj16EE6expandEv.exit.i ]
  %5 = phi ptr [ %.pre.i, %entry.if.end_crit_edge.i ], [ %call.i.i, %_ZN6bufferIN3smt22model_value_dependencyELb1ELj16EE6expandEv.exit.i ]
  %idx.ext.i = zext i32 %4 to i64
  %add.ptr.i = getelementptr inbounds %"class.smt::model_value_dependency", ptr %5, i64 %idx.ext.i
  store i8 1, ptr %add.ptr.i, align 8
  %ref.tmp.sroa.21.0.add.ptr.i.sroa_idx = getelementptr inbounds i8, ptr %add.ptr.i, i64 8
  store ptr %0, ptr %ref.tmp.sroa.21.0.add.ptr.i.sroa_idx, align 8
  %6 = load i32, ptr %m_pos.i, align 8
  %inc.i = add i32 %6, 1
  store i32 %inc.i, ptr %m_pos.i, align 8
  ret void
}